; ModuleID = '31/1956.c'
source_filename = "31/1956.c"
target datalayout = "e-m:e-p270:32:32-p271:32:32-p272:64:64-i64:64-f80:128-n8:16:32:64-S128"
target triple = "x86_64-pc-linux-gnu"

%struct.student = type { [10 x i8], [20 x i8], i8, i32, [20 x i8], [30 x i8], %struct.student* }

@.str = private unnamed_addr constant [18 x i8] c"%s %s %c %d %s %s\00", align 1
@.str.1 = private unnamed_addr constant [19 x i8] c"%s %s %c %d %s %s\0A\00", align 1

; Function Attrs: noinline nounwind uwtable
define dso_local i32 @main() #0 {
  %1 = alloca i32, align 4
  %2 = alloca %struct.student*, align 8
  %3 = alloca %struct.student*, align 8
  store i32 0, i32* %1, align 4
  %4 = call noalias i8* @malloc(i64 100) #3
  %5 = bitcast i8* %4 to %struct.student*
  store %struct.student* %5, %struct.student** %2, align 8
  %6 = load %struct.student*, %struct.student** %2, align 8
  %7 = getelementptr inbounds %struct.student, %struct.student* %6, i32 0, i32 6
  store %struct.student* null, %struct.student** %7, align 8
  %8 = load %struct.student*, %struct.student** %2, align 8
  %9 = getelementptr inbounds %struct.student, %struct.student* %8, i32 0, i32 0
  %10 = getelementptr inbounds [10 x i8], [10 x i8]* %9, i64 0, i64 0
  %11 = load %struct.student*, %struct.student** %2, align 8
  %12 = getelementptr inbounds %struct.student, %struct.student* %11, i32 0, i32 1
  %13 = getelementptr inbounds [20 x i8], [20 x i8]* %12, i64 0, i64 0
  %14 = load %struct.student*, %struct.student** %2, align 8
  %15 = getelementptr inbounds %struct.student, %struct.student* %14, i32 0, i32 2
  %16 = load %struct.student*, %struct.student** %2, align 8
  %17 = getelementptr inbounds %struct.student, %struct.student* %16, i32 0, i32 3
  %18 = load %struct.student*, %struct.student** %2, align 8
  %19 = getelementptr inbounds %struct.student, %struct.student* %18, i32 0, i32 4
  %20 = load %struct.student*, %struct.student** %2, align 8
  %21 = getelementptr inbounds %struct.student, %struct.student* %20, i32 0, i32 5
  %22 = getelementptr inbounds [30 x i8], [30 x i8]* %21, i64 0, i64 0
  %23 = call i32 (i8*, ...) @__isoc99_scanf(i8* getelementptr inbounds ([18 x i8], [18 x i8]* @.str, i64 0, i64 0), i8* %10, i8* %13, i8* %15, i32* %17, [20 x i8]* %19, i8* %22)
  br label %24

24:                                               ; preds = %0, %54
  %25 = load %struct.student*, %struct.student** %2, align 8
  store %struct.student* %25, %struct.student** %3, align 8
  %26 = call noalias i8* @malloc(i64 100) #3
  %27 = bitcast i8* %26 to %struct.student*
  store %struct.student* %27, %struct.student** %2, align 8
  %28 = load %struct.student*, %struct.student** %3, align 8
  %29 = load %struct.student*, %struct.student** %2, align 8
  %30 = getelementptr inbounds %struct.student, %struct.student* %29, i32 0, i32 6
  store %struct.student* %28, %struct.student** %30, align 8
  %31 = load %struct.student*, %struct.student** %2, align 8
  %32 = getelementptr inbounds %struct.student, %struct.student* %31, i32 0, i32 0
  %33 = getelementptr inbounds [10 x i8], [10 x i8]* %32, i64 0, i64 0
  %34 = load %struct.student*, %struct.student** %2, align 8
  %35 = getelementptr inbounds %struct.student, %struct.student* %34, i32 0, i32 1
  %36 = getelementptr inbounds [20 x i8], [20 x i8]* %35, i64 0, i64 0
  %37 = load %struct.student*, %struct.student** %2, align 8
  %38 = getelementptr inbounds %struct.student, %struct.student* %37, i32 0, i32 2
  %39 = load %struct.student*, %struct.student** %2, align 8
  %40 = getelementptr inbounds %struct.student, %struct.student* %39, i32 0, i32 3
  %41 = load %struct.student*, %struct.student** %2, align 8
  %42 = getelementptr inbounds %struct.student, %struct.student* %41, i32 0, i32 4
  %43 = load %struct.student*, %struct.student** %2, align 8
  %44 = getelementptr inbounds %struct.student, %struct.student* %43, i32 0, i32 5
  %45 = getelementptr inbounds [30 x i8], [30 x i8]* %44, i64 0, i64 0
  %46 = call i32 (i8*, ...) @__isoc99_scanf(i8* getelementptr inbounds ([18 x i8], [18 x i8]* @.str, i64 0, i64 0), i8* %33, i8* %36, i8* %38, i32* %40, [20 x i8]* %42, i8* %45)
  %47 = load %struct.student*, %struct.student** %2, align 8
  %48 = getelementptr inbounds %struct.student, %struct.student* %47, i32 0, i32 0
  %49 = getelementptr inbounds [10 x i8], [10 x i8]* %48, i64 0, i64 0
  %50 = load i8, i8* %49, align 8
  %51 = sext i8 %50 to i32
  %52 = icmp eq i32 %51, 101
  br i1 %52, label %53, label %54

53:                                               ; preds = %24
  br label %55

54:                                               ; preds = %24
  br label %24

55:                                               ; preds = %53
  br label %56

56:                                               ; preds = %61, %55
  %57 = load %struct.student*, %struct.student** %2, align 8
  %58 = getelementptr inbounds %struct.student, %struct.student* %57, i32 0, i32 6
  %59 = load %struct.student*, %struct.student** %58, align 8
  %60 = icmp ne %struct.student* %59, null
  br i1 %60, label %61, label %85

61:                                               ; preds = %56
  %62 = load %struct.student*, %struct.student** %2, align 8
  %63 = getelementptr inbounds %struct.student, %struct.student* %62, i32 0, i32 6
  %64 = load %struct.student*, %struct.student** %63, align 8
  store %struct.student* %64, %struct.student** %2, align 8
  %65 = load %struct.student*, %struct.student** %2, align 8
  %66 = getelementptr inbounds %struct.student, %struct.student* %65, i32 0, i32 0
  %67 = getelementptr inbounds [10 x i8], [10 x i8]* %66, i64 0, i64 0
  %68 = load %struct.student*, %struct.student** %2, align 8
  %69 = getelementptr inbounds %struct.student, %struct.student* %68, i32 0, i32 1
  %70 = getelementptr inbounds [20 x i8], [20 x i8]* %69, i64 0, i64 0
  %71 = load %struct.student*, %struct.student** %2, align 8
  %72 = getelementptr inbounds %struct.student, %struct.student* %71, i32 0, i32 2
  %73 = load i8, i8* %72, align 2
  %74 = sext i8 %73 to i32
  %75 = load %struct.student*, %struct.student** %2, align 8
  %76 = getelementptr inbounds %struct.student, %struct.student* %75, i32 0, i32 3
  %77 = load i32, i32* %76, align 8
  %78 = load %struct.student*, %struct.student** %2, align 8
  %79 = getelementptr inbounds %struct.student, %struct.student* %78, i32 0, i32 4
  %80 = getelementptr inbounds [20 x i8], [20 x i8]* %79, i64 0, i64 0
  %81 = load %struct.student*, %struct.student** %2, align 8
  %82 = getelementptr inbounds %struct.student, %struct.student* %81, i32 0, i32 5
  %83 = getelementptr inbounds [30 x i8], [30 x i8]* %82, i64 0, i64 0
  %84 = call i32 (i8*, ...) @printf(i8* getelementptr inbounds ([19 x i8], [19 x i8]* @.str.1, i64 0, i64 0), i8* %67, i8* %70, i32 %74, i32 %77, i8* %80, i8* %83)
  br label %56

85:                                               ; preds = %56
  ret i32 0
}

; Function Attrs: nounwind
declare dso_local noalias i8* @malloc(i64) #1

declare dso_local i32 @__isoc99_scanf(i8*, ...) #2

declare dso_local i32 @printf(i8*, ...) #2


!llvm.module.flags = !{!0}
!llvm.ident = !{!1}

!0 = !{i32 1, !"wchar_size", i32 4}
!1 = !{!"clang version 10.0.0-4ubuntu1 "}
