; ModuleID = 'source-C-CXX/30/1956.c'
source_filename = "source-C-CXX/30/1956.c"
target datalayout = "e-m:e-p270:32:32-p271:32:32-p272:64:64-i64:64-f80:128-n8:16:32:64-S128"
target triple = "x86_64-pc-linux-gnu"

%struct.student = type { [10 x i8], [20 x i8], i8, i32, [20 x i8], [30 x i8], %struct.student* }

@.str = private unnamed_addr constant [18 x i8] c"%s %s %c %d %s %s\00", align 1
@.str.1 = private unnamed_addr constant [19 x i8] c"%s %s %c %d %s %s\0A\00", align 1

; Function Attrs: nofree nounwind sspstrong uwtable
define dso_local i32 @main() local_unnamed_addr #0 {
  %1 = tail call noalias align 16 dereferenceable_or_null(100) i8* @malloc(i64 100) #3
  %2 = bitcast i8* %1 to %struct.student*
  %3 = getelementptr inbounds %struct.student, %struct.student* %2, i64 0, i32 6
  store %struct.student* null, %struct.student** %3, align 8, !tbaa !5
  %4 = getelementptr inbounds %struct.student, %struct.student* %2, i64 0, i32 0, i64 0
  %5 = getelementptr inbounds %struct.student, %struct.student* %2, i64 0, i32 1, i64 0
  %6 = getelementptr inbounds %struct.student, %struct.student* %2, i64 0, i32 2
  %7 = getelementptr inbounds %struct.student, %struct.student* %2, i64 0, i32 3
  %8 = getelementptr inbounds %struct.student, %struct.student* %2, i64 0, i32 4
  %9 = getelementptr inbounds %struct.student, %struct.student* %2, i64 0, i32 5, i64 0
  %10 = tail call i32 (i8*, ...) @__isoc99_scanf(i8* getelementptr inbounds ([18 x i8], [18 x i8]* @.str, i64 0, i64 0), i8* %4, i8* nonnull %5, i8* nonnull %6, i32* nonnull %7, [20 x i8]* nonnull %8, i8* nonnull %9)
  br label %11

11:                                               ; preds = %11, %0
  %12 = phi %struct.student* [ %2, %0 ], [ %14, %11 ]
  %13 = tail call noalias align 16 dereferenceable_or_null(100) i8* @malloc(i64 100) #3
  %14 = bitcast i8* %13 to %struct.student*
  %15 = getelementptr inbounds %struct.student, %struct.student* %14, i64 0, i32 6
  store %struct.student* %12, %struct.student** %15, align 8, !tbaa !5
  %16 = getelementptr inbounds %struct.student, %struct.student* %14, i64 0, i32 0, i64 0
  %17 = getelementptr inbounds %struct.student, %struct.student* %14, i64 0, i32 1, i64 0
  %18 = getelementptr inbounds %struct.student, %struct.student* %14, i64 0, i32 2
  %19 = getelementptr inbounds %struct.student, %struct.student* %14, i64 0, i32 3
  %20 = getelementptr inbounds %struct.student, %struct.student* %14, i64 0, i32 4
  %21 = getelementptr inbounds %struct.student, %struct.student* %14, i64 0, i32 5, i64 0
  %22 = tail call i32 (i8*, ...) @__isoc99_scanf(i8* getelementptr inbounds ([18 x i8], [18 x i8]* @.str, i64 0, i64 0), i8* %16, i8* nonnull %17, i8* nonnull %18, i32* nonnull %19, [20 x i8]* nonnull %20, i8* nonnull %21)
  %23 = load i8, i8* %16, align 16, !tbaa !11
  %24 = icmp eq i8 %23, 101
  br i1 %24, label %25, label %11

25:                                               ; preds = %11
  %26 = bitcast i8* %13 to %struct.student*
  %27 = getelementptr inbounds %struct.student, %struct.student* %26, i64 0, i32 6
  %28 = load %struct.student*, %struct.student** %27, align 8, !tbaa !5
  %29 = icmp eq %struct.student* %28, null
  br i1 %29, label %45, label %30

30:                                               ; preds = %25, %30
  %31 = phi %struct.student* [ %43, %30 ], [ %28, %25 ]
  %32 = getelementptr inbounds %struct.student, %struct.student* %31, i64 0, i32 0, i64 0
  %33 = getelementptr inbounds %struct.student, %struct.student* %31, i64 0, i32 1, i64 0
  %34 = getelementptr inbounds %struct.student, %struct.student* %31, i64 0, i32 2
  %35 = load i8, i8* %34, align 2, !tbaa !12
  %36 = sext i8 %35 to i32
  %37 = getelementptr inbounds %struct.student, %struct.student* %31, i64 0, i32 3
  %38 = load i32, i32* %37, align 8, !tbaa !13
  %39 = getelementptr inbounds %struct.student, %struct.student* %31, i64 0, i32 4, i64 0
  %40 = getelementptr inbounds %struct.student, %struct.student* %31, i64 0, i32 5, i64 0
  %41 = tail call i32 (i8*, ...) @printf(i8* nonnull dereferenceable(1) getelementptr inbounds ([19 x i8], [19 x i8]* @.str.1, i64 0, i64 0), i8* nonnull %32, i8* nonnull %33, i32 %36, i32 %38, i8* nonnull %39, i8* nonnull %40)
  %42 = getelementptr inbounds %struct.student, %struct.student* %31, i64 0, i32 6
  %43 = load %struct.student*, %struct.student** %42, align 8, !tbaa !5
  %44 = icmp eq %struct.student* %43, null
  br i1 %44, label %45, label %30, !llvm.loop !14

45:                                               ; preds = %30, %25
  ret i32 0
}

; Function Attrs: inaccessiblememonly mustprogress nofree nounwind willreturn
declare noalias noundef align 16 i8* @malloc(i64 noundef) local_unnamed_addr #1

; Function Attrs: nofree nounwind
declare noundef i32 @__isoc99_scanf(i8* nocapture noundef readonly, ...) local_unnamed_addr #2

; Function Attrs: nofree nounwind
declare noundef i32 @printf(i8* nocapture noundef readonly, ...) local_unnamed_addr #2


!llvm.module.flags = !{!0, !1, !2, !3}
!llvm.ident = !{!4}

!0 = !{i32 1, !"wchar_size", i32 4}
!1 = !{i32 7, !"PIC Level", i32 2}
!2 = !{i32 7, !"PIE Level", i32 2}
!3 = !{i32 7, !"uwtable", i32 1}
!4 = !{!"clang version 13.0.0"}
!5 = !{!6, !10, i64 88}
!6 = !{!"student", !7, i64 0, !7, i64 10, !7, i64 30, !9, i64 32, !7, i64 36, !7, i64 56, !10, i64 88}
!7 = !{!"omnipotent char", !8, i64 0}
!8 = !{!"Simple C/C++ TBAA"}
!9 = !{!"int", !7, i64 0}
!10 = !{!"any pointer", !7, i64 0}
!11 = !{!7, !7, i64 0}
!12 = !{!6, !7, i64 30}
!13 = !{!6, !9, i64 32}
!14 = distinct !{!14, !15}
!15 = !{!"llvm.loop.mustprogress"}
